target datalayout = "e-m:e-p270:32:32-p271:32:32-p272:64:64-i64:64-i128:128-f80:128-n8:16:32:64-S128"
target triple = "x86_64-pc-linux-gnu"

; Function Attrs: nounwind uwtable
define hidden void @ImgIoUtilCopyPlane(ptr noundef %0, i32 noundef %1, ptr noundef %2, i32 noundef %3, i32 noundef %4, i32 noundef %5) #0 {
  %7 = alloca ptr, align 8
  %8 = alloca i32, align 4
  %9 = alloca ptr, align 8
  %10 = alloca i32, align 4
  %11 = alloca i32, align 4
  %12 = alloca i32, align 4
  store ptr %0, ptr %7, align 8
  store i32 %1, ptr %8, align 4
  store ptr %2, ptr %9, align 8
  store i32 %3, ptr %10, align 4
  store i32 %4, ptr %11, align 4
  store i32 %5, ptr %12, align 4
  br label %13

13:                                               ; preds = %17, %6
  %14 = load i32, ptr %12, align 4
  %15 = add nsw i32 %14, -1
  store i32 %15, ptr %12, align 4
  %16 = icmp sgt i32 %14, 0
  br i1 %16, label %17, label %31

17:                                               ; preds = %13
  %18 = load ptr, ptr %9, align 8
  %19 = load ptr, ptr %7, align 8
  %20 = load i32, ptr %11, align 4
  %21 = sext i32 %20 to i64
  %22 = mul i64 %21, 1
  call void @llvm.memcpy.p0.p0.i64(ptr align 1 %18, ptr align 1 %19, i64 %22, i1 false)
  %23 = load i32, ptr %8, align 4
  %24 = load ptr, ptr %7, align 8
  %25 = sext i32 %23 to i64
  %26 = getelementptr inbounds i8, ptr %24, i64 %25
  store ptr %26, ptr %7, align 8
  %27 = load i32, ptr %10, align 4
  %28 = load ptr, ptr %9, align 8
  %29 = sext i32 %27 to i64
  %30 = getelementptr inbounds i8, ptr %28, i64 %29
  store ptr %30, ptr %9, align 8
  br label %13, !llvm.loop !7

31:                                               ; preds = %13
  ret void
}