; Function Attrs: nofree norecurse nosync nounwind memory(argmem: readwrite) uwtable
define hidden void @ImgIoUtilCopyPlane(ptr noundef readonly captures(none) %0, i32 noundef %1, ptr noundef writeonly captures(none) %2, i32 noundef %3, i32 noundef %4, i32 noundef %5) local_unnamed_addr #8 {
  %7 = icmp sgt i32 %5, 0
  br i1 %7, label %.lr.ph, label %._crit_edge

.lr.ph:                                           ; preds = %6
  %8 = sext i32 %4 to i64
  %9 = sext i32 %1 to i64
  %10 = sext i32 %3 to i64
  br label %11

11:                                               ; preds = %.lr.ph, %11
  %.011 = phi i32 [ %5, %.lr.ph ], [ %12, %11 ]
  %.0710 = phi ptr [ %0, %.lr.ph ], [ %13, %11 ]
  %.089 = phi ptr [ %2, %.lr.ph ], [ %14, %11 ]
  %12 = add nsw i32 %.011, -1
  tail call void @llvm.memcpy.p0.p0.i64(ptr align 1 %.089, ptr align 1 %.0710, i64 %8, i1 false)
  %13 = getelementptr inbounds i8, ptr %.0710, i64 %9
  %14 = getelementptr inbounds i8, ptr %.089, i64 %10
  %15 = icmp samesign ugt i32 %.011, 1
  br i1 %15, label %11, label %._crit_edge, !llvm.loop !7

._crit_edge:                                      ; preds = %11, %6
  ret void
}